target datalayout = "e-m:e-p270:32:32-p271:32:32-p272:64:64-i64:64-i128:128-f80:128-n8:16:32:64-S128"
target triple = "x86_64-unknown-linux-gnu"

; Function Attrs: mustprogress uwtable
define noundef zeroext i1 @_ZN3re212re2_internal5ParseIjEEbPKcmPT_i(ptr noundef %str, i64 noundef %n, ptr noundef %dest, i32 noundef %radix) #1 {
entry:
  %retval = alloca i1, align 1
  %str.addr = alloca ptr, align 8
  %n.addr = alloca i64, align 8
  %dest.addr = alloca ptr, align 8
  %radix.addr = alloca i32, align 4
  %r = alloca i64, align 8
  store ptr %str, ptr %str.addr, align 8
  store i64 %n, ptr %n.addr, align 8
  store ptr %dest, ptr %dest.addr, align 8
  store i32 %radix, ptr %radix.addr, align 4
  %0 = load ptr, ptr %str.addr, align 8
  %1 = load i64, ptr %n.addr, align 8
  %2 = load i32, ptr %radix.addr, align 4
  %call = call noundef zeroext i1 @_ZN3re212re2_internal5ParseImEEbPKcmPT_i(ptr noundef %0, i64 noundef %1, ptr noundef %r, i32 noundef %2)
  br i1 %call, label %if.end, label %if.then

if.then:                                          ; preds = %entry
  store i1 false, ptr %retval, align 1
  br label %return

if.end:                                           ; preds = %entry
  %3 = load i64, ptr %r, align 8
  %conv = trunc i64 %3 to i32
  %conv1 = zext i32 %conv to i64
  %4 = load i64, ptr %r, align 8
  %cmp = icmp ne i64 %conv1, %4
  br i1 %cmp, label %if.then2, label %if.end3

if.then2:                                         ; preds = %if.end
  store i1 false, ptr %retval, align 1
  br label %return

if.end3:                                          ; preds = %if.end
  %5 = load ptr, ptr %dest.addr, align 8
  %cmp4 = icmp eq ptr %5, null
  br i1 %cmp4, label %if.then5, label %if.end6

if.then5:                                         ; preds = %if.end3
  store i1 true, ptr %retval, align 1
  br label %return

if.end6:                                          ; preds = %if.end3
  %6 = load i64, ptr %r, align 8
  %conv7 = trunc i64 %6 to i32
  %7 = load ptr, ptr %dest.addr, align 8
  store i32 %conv7, ptr %7, align 4
  store i1 true, ptr %retval, align 1
  br label %return

return:                                           ; preds = %if.end6, %if.then5, %if.then2, %if.then
  %8 = load i1, ptr %retval, align 1
  ret i1 %8
}